target datalayout = "e-m:e-p270:32:32-p271:32:32-p272:64:64-i64:64-i128:128-f80:128-n8:16:32:64-S128"
target triple = "x86_64-pc-linux-gnu"

%struct.FormData_pg_attribute = type { i32, %struct.nameData, i32, i16, i16, i32, i16, i8, i8, i8, i8, i8, i8, i8, i8, i8, i8, i8, i16, i32 }
%struct.nameData = type { [64 x i8] }
%struct.RelationData = type { %struct.RelFileLocator, ptr, i32, i32, i8, i8, i8, i8, i8, i32, i32, i32, i32, ptr, ptr, i32, %struct.LockInfoData, ptr, ptr, ptr, ptr, ptr, i8, ptr, ptr, ptr, ptr, ptr, ptr, i32, ptr, i8, ptr, ptr, i32, i8, i32, ptr, i8, ptr, ptr, ptr, ptr, ptr, ptr, ptr, i32, ptr, ptr, ptr, ptr, ptr, ptr, ptr, ptr, ptr, ptr, ptr, ptr, ptr, ptr, ptr, ptr, ptr, ptr, ptr, i32, i8, ptr }
%struct.RelFileLocator = type { i32, i32, i32 }
%struct.LockInfoData = type { %struct.LockRelId }
%struct.LockRelId = type { i32, i32 }
%struct.TupleDescData = type { i32, i32, i32, i32, ptr, [0 x %struct.CompactAttribute] }
%struct.CompactAttribute = type { i32, i16, i8, i8, i8, i8, i8, i8, i8 }

@.str.1 = private unnamed_addr constant [17 x i8] c"parse_relation.c\00", align 1
@.str.50 = private unnamed_addr constant [28 x i8] c"invalid attribute number %d\00", align 1
@__func__.attnumTypeId = private unnamed_addr constant [13 x i8] c"attnumTypeId\00", align 1

; Function Attrs: inlinehint nounwind uwtable
define internal ptr @TupleDescAttr(ptr noundef %0, i32 noundef %1) #6 {
  %3 = alloca ptr, align 8
  %4 = alloca i32, align 4
  %5 = alloca ptr, align 8
  store ptr %0, ptr %3, align 8
  store i32 %1, ptr %4, align 4
  call void @llvm.lifetime.start.p0(i64 8, ptr %5) #8
  %6 = load ptr, ptr %3, align 8
  %7 = load ptr, ptr %3, align 8
  %8 = getelementptr inbounds nuw %struct.TupleDescData, ptr %7, i32 0, i32 0
  %9 = load i32, ptr %8, align 8
  %10 = sext i32 %9 to i64
  %11 = mul i64 %10, 16
  %12 = add i64 24, %11
  %13 = getelementptr inbounds nuw i8, ptr %6, i64 %12
  store ptr %13, ptr %5, align 8
  %14 = load ptr, ptr %5, align 8
  %15 = load i32, ptr %4, align 4
  %16 = sext i32 %15 to i64
  %17 = getelementptr inbounds %struct.FormData_pg_attribute, ptr %14, i64 %16
  call void @llvm.lifetime.end.p0(i64 8, ptr %5) #8
  ret ptr %17
}

; Function Attrs: nounwind uwtable
define dso_local i32 @attnumTypeId(ptr noundef %0, i32 noundef %1) #0 {
  %3 = alloca i32, align 4
  %4 = alloca ptr, align 8
  %5 = alloca i32, align 4
  %6 = alloca ptr, align 8
  store ptr %0, ptr %4, align 8
  store i32 %1, ptr %5, align 4
  %7 = load i32, ptr %5, align 4
  %8 = icmp sle i32 %7, 0
  br i1 %8, label %9, label %16

9:                                                ; preds = %2
  call void @llvm.lifetime.start.p0(i64 8, ptr %6) #8
  %10 = load i32, ptr %5, align 4
  %11 = trunc i32 %10 to i16
  %12 = call ptr @SystemAttributeDefinition(i16 noundef signext %11)
  store ptr %12, ptr %6, align 8
  %13 = load ptr, ptr %6, align 8
  %14 = getelementptr inbounds nuw %struct.FormData_pg_attribute, ptr %13, i32 0, i32 2
  %15 = load i32, ptr %14, align 4
  store i32 %15, ptr %3, align 4
  call void @llvm.lifetime.end.p0(i64 8, ptr %6) #8
  br label %44

16:                                               ; preds = %2
  %17 = load i32, ptr %5, align 4
  %18 = load ptr, ptr %4, align 8
  %19 = getelementptr inbounds nuw %struct.RelationData, ptr %18, i32 0, i32 14
  %20 = load ptr, ptr %19, align 8
  %21 = getelementptr inbounds nuw %struct.TupleDescData, ptr %20, i32 0, i32 0
  %22 = load i32, ptr %21, align 8
  %23 = icmp sgt i32 %17, %22
  br i1 %23, label %24, label %35

24:                                               ; preds = %16
  br label %25

25:                                               ; preds = %24
  br i1 true, label %26, label %28

26:                                               ; preds = %25
  %27 = call zeroext i1 @errstart_cold(i32 noundef 21, ptr noundef null) #9
  br i1 %27, label %30, label %33

28:                                               ; preds = %25
  %29 = call zeroext i1 @errstart(i32 noundef 21, ptr noundef null)
  br i1 %29, label %30, label %33

30:                                               ; preds = %28, %26
  %31 = load i32, ptr %5, align 4
  %32 = call i32 (ptr, ...) @errmsg_internal(ptr noundef @.str.50, i32 noundef %31)
  call void @errfinish(ptr noundef @.str.1, i32 noundef 3671, ptr noundef @__func__.attnumTypeId)
  br label %33

33:                                               ; preds = %30, %28, %26
  unreachable

34:                                               ; No predecessors!
  br label %35

35:                                               ; preds = %34, %16
  %36 = load ptr, ptr %4, align 8
  %37 = getelementptr inbounds nuw %struct.RelationData, ptr %36, i32 0, i32 14
  %38 = load ptr, ptr %37, align 8
  %39 = load i32, ptr %5, align 4
  %40 = sub i32 %39, 1
  %41 = call ptr @TupleDescAttr(ptr noundef %38, i32 noundef %40)
  %42 = getelementptr inbounds nuw %struct.FormData_pg_attribute, ptr %41, i32 0, i32 2
  %43 = load i32, ptr %42, align 4
  store i32 %43, ptr %3, align 4
  br label %44

44:                                               ; preds = %35, %9
  %45 = load i32, ptr %3, align 4
  ret i32 %45
}