; Function Attrs: nounwind uwtable
define dso_local i32 @attnumTypeId(ptr noundef readonly captures(none) %0, i32 noundef %1) local_unnamed_addr #0 {
  %3 = icmp slt i32 %1, 1
  br i1 %3, label %4, label %7

4:                                                ; preds = %2
  %5 = trunc i32 %1 to i16
  %6 = tail call ptr @SystemAttributeDefinition(i16 noundef signext %5) #11
  br label %23

7:                                                ; preds = %2
  %8 = getelementptr inbounds nuw i8, ptr %0, i64 64
  %9 = load ptr, ptr %8, align 8
  %10 = load i32, ptr %9, align 8
  %11 = icmp sgt i32 %1, %10
  br i1 %11, label %12, label %15

12:                                               ; preds = %7
  %13 = tail call zeroext i1 @errstart_cold(i32 noundef 21, ptr noundef null) #13
  tail call void @llvm.assume(i1 %13)
  %14 = tail call i32 (ptr, ...) @errmsg_internal(ptr noundef nonnull @.str.50, i32 noundef %1) #11
  tail call void @errfinish(ptr noundef nonnull @.str.1, i32 noundef 3671, ptr noundef nonnull @__func__.attnumTypeId) #11
  unreachable

15:                                               ; preds = %7
  %16 = zext nneg i32 %10 to i64
  %17 = shl nuw nsw i64 %16, 4
  %18 = getelementptr i8, ptr %9, i64 %17
  %19 = getelementptr i8, ptr %18, i64 24
  %20 = zext nneg i32 %1 to i64
  %21 = getelementptr %struct.FormData_pg_attribute, ptr %19, i64 %20
  %22 = getelementptr i8, ptr %21, i64 -100
  br label %23

23:                                               ; preds = %15, %4
  %.pn = phi ptr [ %6, %4 ], [ %22, %15 ]
  %.0.in = getelementptr inbounds nuw i8, ptr %.pn, i64 68
  %.0 = load i32, ptr %.0.in, align 4
  ret i32 %.0
}